; Function Attrs: mustprogress uwtable
define hidden noundef zeroext i1 @_ZN2cv13colored_kinfu16ColoredKinFuImplINS_4UMatEE6updateERKNS_11_InputArrayES6_(ptr noundef nonnull align 8 dereferenceable(448) %0, ptr noundef nonnull align 8 dereferenceable(24) %1, ptr noundef nonnull align 8 dereferenceable(24) %2) unnamed_addr #5 align 2 personality ptr @__gxx_personality_v0 {
  %4 = alloca %"class.std::__cxx11::basic_string", align 8
  %5 = alloca %"class.std::allocator.17", align 1
  %6 = alloca %"class.cv::UMat", align 8
  %7 = alloca %"class.cv::UMat", align 8
  %8 = alloca %"class.cv::_OutputArray", align 8
  %9 = alloca %"class.cv::_OutputArray", align 8
  %10 = alloca %"class.cv::UMat", align 8
  %11 = alloca %"class.cv::UMat", align 8
  %12 = tail call noundef zeroext i1 @_ZNK2cv11_InputArray5emptyEv(ptr noundef nonnull align 8 dereferenceable(24) %1)
  br i1 %12, label %.critedge, label %13

13:                                               ; preds = %3
  %14 = tail call i64 @_ZNK2cv11_InputArray4sizeEi(ptr noundef nonnull align 8 dereferenceable(24) %1, i32 noundef -1)
  %.sroa.0.0.extract.trunc = trunc i64 %14 to i32
  %.sroa.2.0.extract.shift = lshr i64 %14, 32
  %.sroa.2.0.extract.trunc = trunc nuw i64 %.sroa.2.0.extract.shift to i32
  %15 = getelementptr inbounds i8, ptr %0, i64 8
  %.val21 = load i32, ptr %15, align 8
  %16 = getelementptr inbounds i8, ptr %0, i64 12
  %.val22 = load i32, ptr %16, align 4
  %17 = icmp eq i32 %.val21, %.sroa.0.0.extract.trunc
  %18 = icmp eq i32 %.val22, %.sroa.2.0.extract.trunc
  %19 = select i1 %17, i1 %18, i1 false
  br i1 %19, label %27, label %.critedge

.critedge:                                        ; preds = %3, %13
  call void @_ZNSaIcEC1Ev(ptr noundef nonnull align 1 dereferenceable(1) %5) #26
  invoke void @_ZNSt7__cxx1112basic_stringIcSt11char_traitsIcESaIcEEC1EPKcRKS3_(ptr noundef nonnull align 8 dereferenceable(32) %4, ptr noundef nonnull @.str, ptr noundef nonnull align 1 dereferenceable(1) %5)
          to label %20 unwind label %22

20:                                               ; preds = %.critedge
  invoke void @_ZN2cv5errorEiRKNSt7__cxx1112basic_stringIcSt11char_traitsIcESaIcEEEPKcS9_i(i32 noundef -215, ptr noundef nonnull align 8 dereferenceable(32) %4, ptr noundef nonnull @__func__._ZN2cv13colored_kinfu16ColoredKinFuImplINS_3MatEE6updateERKNS_11_InputArrayES6_, ptr noundef nonnull @.str.2, i32 noundef 232) #27
          to label %21 unwind label %24

21:                                               ; preds = %20
  unreachable

22:                                               ; preds = %.critedge
  %23 = landingpad { ptr, i32 }
          cleanup
  br label %26

24:                                               ; preds = %20
  %25 = landingpad { ptr, i32 }
          cleanup
  call void @_ZNSt7__cxx1112basic_stringIcSt11char_traitsIcESaIcEED1Ev(ptr noundef nonnull align 8 dereferenceable(32) %4) #26
  br label %26

26:                                               ; preds = %24, %22
  %.pn = phi { ptr, i32 } [ %25, %24 ], [ %23, %22 ]
  call void @_ZNSaIcED1Ev(ptr noundef nonnull align 1 dereferenceable(1) %5) #26
  br label %57

27:                                               ; preds = %13
  call void @_ZN2cv4UMatC1ENS_14UMatUsageFlagsE(ptr noundef nonnull align 8 dereferenceable(80) %6, i32 noundef 0) #26
  call void @_ZN2cv4UMatC1ENS_14UMatUsageFlagsE(ptr noundef nonnull align 8 dereferenceable(80) %7, i32 noundef 0) #26
  %28 = invoke noundef i32 @_ZNK2cv11_InputArray4kindEv(ptr noundef nonnull align 8 dereferenceable(24) %1)
          to label %29 unwind label %39

29:                                               ; preds = %27
  %30 = icmp eq i32 %28, 655360
  br i1 %30, label %45, label %31

31:                                               ; preds = %29
  %32 = getelementptr inbounds i8, ptr %8, i64 8
  %33 = getelementptr inbounds i8, ptr %8, i64 16
  store i64 0, ptr %33, align 8
  store i32 34209792, ptr %8, align 8
  store ptr %6, ptr %32, align 8
  invoke void @_ZNK2cv11_InputArray6copyToERKNS_12_OutputArrayE(ptr noundef nonnull align 8 dereferenceable(24) %1, ptr noundef nonnull align 8 dereferenceable(24) %8)
          to label %34 unwind label %41

34:                                               ; preds = %31
  %35 = getelementptr inbounds i8, ptr %9, i64 8
  %36 = getelementptr inbounds i8, ptr %9, i64 16
  store i64 0, ptr %36, align 8
  store i32 34209792, ptr %9, align 8
  store ptr %7, ptr %35, align 8
  invoke void @_ZNK2cv11_InputArray6copyToERKNS_12_OutputArrayE(ptr noundef nonnull align 8 dereferenceable(24) %2, ptr noundef nonnull align 8 dereferenceable(24) %9)
          to label %37 unwind label %43

37:                                               ; preds = %34
  %38 = invoke noundef zeroext i1 @_ZN2cv13colored_kinfu16ColoredKinFuImplINS_4UMatEE7updateTERKS2_S5_(ptr noundef nonnull align 8 dereferenceable(448) %0, ptr noundef nonnull align 8 dereferenceable(80) %6, ptr noundef nonnull align 8 dereferenceable(80) %7)
          to label %55 unwind label %39

39:                                               ; preds = %27, %45, %37
  %40 = landingpad { ptr, i32 }
          cleanup
  br label %56

41:                                               ; preds = %31
  %42 = landingpad { ptr, i32 }
          cleanup
  br label %56

43:                                               ; preds = %34
  %44 = landingpad { ptr, i32 }
          cleanup
  br label %56

45:                                               ; preds = %29
  invoke void @_ZNK2cv11_InputArray7getUMatEi(ptr dead_on_unwind nonnull writable sret(%"class.cv::UMat") align 8 %10, ptr noundef nonnull align 8 dereferenceable(24) %1, i32 noundef -1)
          to label %46 unwind label %39

46:                                               ; preds = %45
  invoke void @_ZNK2cv11_InputArray7getUMatEi(ptr dead_on_unwind nonnull writable sret(%"class.cv::UMat") align 8 %11, ptr noundef nonnull align 8 dereferenceable(24) %2, i32 noundef -1)
          to label %47 unwind label %50

47:                                               ; preds = %46
  %48 = invoke noundef zeroext i1 @_ZN2cv13colored_kinfu16ColoredKinFuImplINS_4UMatEE7updateTERKS2_S5_(ptr noundef nonnull align 8 dereferenceable(448) %0, ptr noundef nonnull align 8 dereferenceable(80) %10, ptr noundef nonnull align 8 dereferenceable(80) %11)
          to label %49 unwind label %52

49:                                               ; preds = %47
  call void @_ZN2cv4UMatD1Ev(ptr noundef nonnull align 8 dereferenceable(80) %11) #26
  call void @_ZN2cv4UMatD1Ev(ptr noundef nonnull align 8 dereferenceable(80) %10) #26
  br label %55

50:                                               ; preds = %46
  %51 = landingpad { ptr, i32 }
          cleanup
  br label %54

52:                                               ; preds = %47
  %53 = landingpad { ptr, i32 }
          cleanup
  call void @_ZN2cv4UMatD1Ev(ptr noundef nonnull align 8 dereferenceable(80) %11) #26
  br label %54

54:                                               ; preds = %52, %50
  %.pn16 = phi { ptr, i32 } [ %53, %52 ], [ %51, %50 ]
  call void @_ZN2cv4UMatD1Ev(ptr noundef nonnull align 8 dereferenceable(80) %10) #26
  br label %56

55:                                               ; preds = %37, %49
  %.014 = phi i1 [ %48, %49 ], [ %38, %37 ]
  call void @_ZN2cv4UMatD1Ev(ptr noundef nonnull align 8 dereferenceable(80) %7) #26
  call void @_ZN2cv4UMatD1Ev(ptr noundef nonnull align 8 dereferenceable(80) %6) #26
  ret i1 %.014

56:                                               ; preds = %54, %43, %41, %39
  %.pn16.pn = phi { ptr, i32 } [ %.pn16, %54 ], [ %40, %39 ], [ %44, %43 ], [ %42, %41 ]
  call void @_ZN2cv4UMatD1Ev(ptr noundef nonnull align 8 dereferenceable(80) %7) #26
  call void @_ZN2cv4UMatD1Ev(ptr noundef nonnull align 8 dereferenceable(80) %6) #26
  br label %57

57:                                               ; preds = %56, %26
  %.pn16.pn.pn = phi { ptr, i32 } [ %.pn16.pn, %56 ], [ %.pn, %26 ]
  resume { ptr, i32 } %.pn16.pn.pn
}